; ModuleID = 'source-C-CXX/46/2798.c'
source_filename = "source-C-CXX/46/2798.c"
target datalayout = "e-m:e-p270:32:32-p271:32:32-p272:64:64-i64:64-f80:128-n8:16:32:64-S128"
target triple = "x86_64-pc-linux-gnu"

@.str = private unnamed_addr constant [3 x i8] c"%d\00", align 1

; Function Attrs: nofree nounwind sspstrong uwtable
define dso_local i32 @main() local_unnamed_addr #0 {
  %1 = alloca [100 x i32], align 16
  %2 = alloca i32, align 4
  %3 = bitcast [100 x i32]* %1 to i8*
  call void @llvm.lifetime.start.p0i8(i64 400, i8* nonnull %3) #4
  %4 = bitcast i32* %2 to i8*
  call void @llvm.lifetime.start.p0i8(i64 4, i8* nonnull %4) #4
  %5 = call i32 (i8*, ...) @__isoc99_scanf(i8* getelementptr inbounds ([3 x i8], [3 x i8]* @.str, i64 0, i64 0), i32* nonnull %2)
  %6 = load i32, i32* %2, align 4, !tbaa !5
  %7 = icmp sgt i32 %6, 0
  br i1 %7, label %17, label %63

8:                                                ; preds = %17
  %9 = icmp sgt i32 %22, 1
  br i1 %9, label %10, label %38

10:                                               ; preds = %8
  %11 = lshr i32 %22, 1
  %12 = zext i32 %11 to i64
  %13 = and i64 %12, 1
  %14 = icmp eq i32 %11, 1
  br i1 %14, label %27, label %15

15:                                               ; preds = %10
  %16 = and i64 %12, 2147483646
  br label %40

17:                                               ; preds = %0, %17
  %18 = phi i64 [ %21, %17 ], [ 0, %0 ]
  %19 = getelementptr inbounds [100 x i32], [100 x i32]* %1, i64 0, i64 %18
  %20 = call i32 (i8*, ...) @__isoc99_scanf(i8* getelementptr inbounds ([3 x i8], [3 x i8]* @.str, i64 0, i64 0), i32* nonnull %19)
  %21 = add nuw nsw i64 %18, 1
  %22 = load i32, i32* %2, align 4, !tbaa !5
  %23 = sext i32 %22 to i64
  %24 = icmp slt i64 %21, %23
  br i1 %24, label %17, label %8, !llvm.loop !9

25:                                               ; preds = %40
  %26 = sub nuw i32 -3, %42
  br label %27

27:                                               ; preds = %25, %10
  %28 = phi i64 [ 0, %10 ], [ %59, %25 ]
  %29 = phi i32 [ -1, %10 ], [ %26, %25 ]
  %30 = icmp eq i64 %13, 0
  br i1 %30, label %38, label %31

31:                                               ; preds = %27
  %32 = add i32 %22, %29
  %33 = sext i32 %32 to i64
  %34 = getelementptr inbounds [100 x i32], [100 x i32]* %1, i64 0, i64 %33
  %35 = load i32, i32* %34, align 4, !tbaa !5
  %36 = getelementptr inbounds [100 x i32], [100 x i32]* %1, i64 0, i64 %28
  %37 = load i32, i32* %36, align 4, !tbaa !5
  store i32 %37, i32* %34, align 4, !tbaa !5
  store i32 %35, i32* %36, align 4, !tbaa !5
  br label %38

38:                                               ; preds = %31, %27, %8
  %39 = icmp sgt i32 %22, 0
  br i1 %39, label %64, label %63

40:                                               ; preds = %40, %15
  %41 = phi i64 [ 0, %15 ], [ %59, %40 ]
  %42 = phi i32 [ 0, %15 ], [ %60, %40 ]
  %43 = phi i64 [ %16, %15 ], [ %61, %40 ]
  %44 = xor i32 %42, -1
  %45 = add i32 %22, %44
  %46 = sext i32 %45 to i64
  %47 = getelementptr inbounds [100 x i32], [100 x i32]* %1, i64 0, i64 %46
  %48 = load i32, i32* %47, align 4, !tbaa !5
  %49 = getelementptr inbounds [100 x i32], [100 x i32]* %1, i64 0, i64 %41
  %50 = load i32, i32* %49, align 8, !tbaa !5
  store i32 %50, i32* %47, align 4, !tbaa !5
  store i32 %48, i32* %49, align 8, !tbaa !5
  %51 = or i64 %41, 1
  %52 = sub nuw nsw i32 -2, %42
  %53 = add i32 %22, %52
  %54 = sext i32 %53 to i64
  %55 = getelementptr inbounds [100 x i32], [100 x i32]* %1, i64 0, i64 %54
  %56 = load i32, i32* %55, align 4, !tbaa !5
  %57 = getelementptr inbounds [100 x i32], [100 x i32]* %1, i64 0, i64 %51
  %58 = load i32, i32* %57, align 4, !tbaa !5
  store i32 %58, i32* %55, align 4, !tbaa !5
  store i32 %56, i32* %57, align 4, !tbaa !5
  %59 = add nuw nsw i64 %41, 2
  %60 = add nuw nsw i32 %42, 2
  %61 = add i64 %43, -2
  %62 = icmp eq i64 %61, 0
  br i1 %62, label %25, label %40, !llvm.loop !11

63:                                               ; preds = %76, %0, %38
  call void @llvm.lifetime.end.p0i8(i64 4, i8* nonnull %4) #4
  call void @llvm.lifetime.end.p0i8(i64 400, i8* nonnull %3) #4
  ret i32 0

64:                                               ; preds = %38, %76
  %65 = phi i64 [ %78, %76 ], [ 0, %38 ]
  %66 = getelementptr inbounds [100 x i32], [100 x i32]* %1, i64 0, i64 %65
  %67 = load i32, i32* %66, align 4, !tbaa !5
  %68 = call i32 (i8*, ...) @printf(i8* nonnull dereferenceable(1) getelementptr inbounds ([3 x i8], [3 x i8]* @.str, i64 0, i64 0), i32 %67)
  %69 = load i32, i32* %2, align 4, !tbaa !5
  %70 = add nsw i32 %69, -1
  %71 = sext i32 %70 to i64
  %72 = icmp slt i64 %65, %71
  br i1 %72, label %73, label %76

73:                                               ; preds = %64
  %74 = call i32 @putchar(i32 32)
  %75 = load i32, i32* %2, align 4, !tbaa !5
  br label %76

76:                                               ; preds = %64, %73
  %77 = phi i32 [ %69, %64 ], [ %75, %73 ]
  %78 = add nuw nsw i64 %65, 1
  %79 = sext i32 %77 to i64
  %80 = icmp slt i64 %78, %79
  br i1 %80, label %64, label %63, !llvm.loop !12
}

; Function Attrs: argmemonly mustprogress nofree nosync nounwind willreturn
declare void @llvm.lifetime.start.p0i8(i64 immarg, i8* nocapture) #1

; Function Attrs: nofree nounwind
declare noundef i32 @__isoc99_scanf(i8* nocapture noundef readonly, ...) local_unnamed_addr #2

; Function Attrs: argmemonly mustprogress nofree nosync nounwind willreturn
declare void @llvm.lifetime.end.p0i8(i64 immarg, i8* nocapture) #1

; Function Attrs: nofree nounwind
declare noundef i32 @printf(i8* nocapture noundef readonly, ...) local_unnamed_addr #2

; Function Attrs: nofree nounwind
declare noundef i32 @putchar(i32 noundef) local_unnamed_addr #3


!llvm.module.flags = !{!0, !1, !2, !3}
!llvm.ident = !{!4}

!0 = !{i32 1, !"wchar_size", i32 4}
!1 = !{i32 7, !"PIC Level", i32 2}
!2 = !{i32 7, !"PIE Level", i32 2}
!3 = !{i32 7, !"uwtable", i32 1}
!4 = !{!"clang version 13.0.0"}
!5 = !{!6, !6, i64 0}
!6 = !{!"int", !7, i64 0}
!7 = !{!"omnipotent char", !8, i64 0}
!8 = !{!"Simple C/C++ TBAA"}
!9 = distinct !{!9, !10}
!10 = !{!"llvm.loop.mustprogress"}
!11 = distinct !{!11, !10}
!12 = distinct !{!12, !10}
